; Function Attrs: mustprogress nofree norecurse nosync nounwind willreturn memory(none) uwtable
define dso_local noundef zeroext i1 @_ZN4llvm3X867isVMOVQEj(i32 noundef %0) local_unnamed_addr #0 {
  switch i32 %0, label %2 [
    i32 13430, label %3
    i32 13431, label %3
    i32 13432, label %3
    i32 13433, label %3
    i32 13808, label %3
    i32 13809, label %3
    i32 13810, label %3
    i32 13811, label %3
    i32 13812, label %3
    i32 13813, label %3
    i32 13814, label %3
    i32 13815, label %3
    i32 13816, label %3
    i32 13817, label %3
    i32 14000, label %3
    i32 14001, label %3
  ]

2:                                                ; preds = %1
  br label %3

3:                                                ; preds = %1, %1, %1, %1, %1, %1, %1, %1, %1, %1, %1, %1, %1, %1, %1, %1, %2
  %.0 = phi i1 [ false, %2 ], [ true, %1 ], [ true, %1 ], [ true, %1 ], [ true, %1 ], [ true, %1 ], [ true, %1 ], [ true, %1 ], [ true, %1 ], [ true, %1 ], [ true, %1 ], [ true, %1 ], [ true, %1 ], [ true, %1 ], [ true, %1 ], [ true, %1 ], [ true, %1 ]
  ret i1 %.0
}